target datalayout = "e-m:e-p270:32:32-p271:32:32-p272:64:64-i64:64-i128:128-f80:128-n8:16:32:64-S128"
target triple = "x86_64-pc-linux-gnu"

%struct.AVRational = type { i32, i32 }
%struct.MOVTrack = type { i32, i32, i32, i32, i64, i64, i32, i64, i64, i64, i32, i32, i32, i32, i32, i32, i32, ptr, ptr, i32, i32, i32, ptr, ptr, ptr, i32, i32, i32, i32, i32, i64, i64, i64, i32, i64, i32, i32, ptr, i32, i64, i32, i64, i32, i32, %struct.HintSampleQueue, ptr, ptr, i64, i32, i32, i32, ptr, i32, %struct.anon, ptr, %struct.MOVMuxCencContext, [256 x i32], i32, i32, i32, %struct.PacketList, ptr, i32, i32, ptr }
%struct.HintSampleQueue = type { i32, i32, ptr }
%struct.anon = type { i32, i32, i32, i32, i32, i32, i32 }
%struct.MOVMuxCencContext = type { ptr, ptr, i64, i64, i32, i32, i16, i64, ptr, i64, ptr, i32, i32, ptr, %struct.CodedBitstreamFragment }
%struct.CodedBitstreamFragment = type { ptr, i64, i64, ptr, i32, i32, ptr }
%struct.PacketList = type { ptr, ptr }
%struct.AVCodecParameters = type { i32, i32, i32, ptr, i32, ptr, i32, i32, i64, i32, i32, i32, i32, i32, i32, %struct.AVRational, %struct.AVRational, i32, i32, i32, i32, i32, i32, i32, %struct.AVChannelLayout, i32, i32, i32, i32, i32, i32 }
%struct.AVChannelLayout = type { i32, i32, %union.anon, ptr }
%union.anon = type { i64 }

@.str.6 = private unnamed_addr constant [30 x i8] c"Assertion %s failed at %s:%d\0A\00", align 1
@.str.8 = private unnamed_addr constant [21 x i8] c"libavformat/movenc.c\00", align 1
@.str.422 = private unnamed_addr constant [5 x i8] c"pcmC\00", align 1
@.str.423 = private unnamed_addr constant [12 x i8] c"sample_size\00", align 1

; Function Attrs: nounwind uwtable
define internal i64 @update_size(ptr noundef %0, i64 noundef %1) #0 {
  %3 = alloca ptr, align 8
  %4 = alloca i64, align 8
  %5 = alloca i64, align 8
  store ptr %0, ptr %3, align 8, !tbaa !31
  store i64 %1, ptr %4, align 8, !tbaa !134
  call void @llvm.lifetime.start.p0(i64 8, ptr %5) #14
  %6 = load ptr, ptr %3, align 8, !tbaa !31
  %7 = call i64 @avio_tell(ptr noundef %6)
  store i64 %7, ptr %5, align 8, !tbaa !134
  %8 = load ptr, ptr %3, align 8, !tbaa !31
  %9 = load i64, ptr %4, align 8, !tbaa !134
  %10 = call i64 @avio_seek(ptr noundef %8, i64 noundef %9, i32 noundef 0)
  %11 = load ptr, ptr %3, align 8, !tbaa !31
  %12 = load i64, ptr %5, align 8, !tbaa !134
  %13 = load i64, ptr %4, align 8, !tbaa !134
  %14 = sub nsw i64 %12, %13
  %15 = trunc i64 %14 to i32
  call void @avio_wb32(ptr noundef %11, i32 noundef %15)
  %16 = load ptr, ptr %3, align 8, !tbaa !31
  %17 = load i64, ptr %5, align 8, !tbaa !134
  %18 = call i64 @avio_seek(ptr noundef %16, i64 noundef %17, i32 noundef 0)
  %19 = load i64, ptr %5, align 8, !tbaa !134
  %20 = load i64, ptr %4, align 8, !tbaa !134
  %21 = sub nsw i64 %19, %20
  call void @llvm.lifetime.end.p0(i64 8, ptr %5) #14
  ret i64 %21
}

; Function Attrs: alwaysinline nounwind uwtable
define internal void @ffio_wfourcc(ptr noundef %0, ptr noundef %1) #6 {
  %3 = alloca ptr, align 8
  %4 = alloca ptr, align 8
  store ptr %0, ptr %3, align 8, !tbaa !31
  store ptr %1, ptr %4, align 8, !tbaa !38
  %5 = load ptr, ptr %3, align 8, !tbaa !31
  %6 = load ptr, ptr %4, align 8, !tbaa !38
  %7 = getelementptr inbounds i8, ptr %6, i64 0
  %8 = load i8, ptr %7, align 1, !tbaa !85
  %9 = zext i8 %8 to i32
  %10 = load ptr, ptr %4, align 8, !tbaa !38
  %11 = getelementptr inbounds i8, ptr %10, i64 1
  %12 = load i8, ptr %11, align 1, !tbaa !85
  %13 = zext i8 %12 to i32
  %14 = shl i32 %13, 8
  %15 = or i32 %9, %14
  %16 = load ptr, ptr %4, align 8, !tbaa !38
  %17 = getelementptr inbounds i8, ptr %16, i64 2
  %18 = load i8, ptr %17, align 1, !tbaa !85
  %19 = zext i8 %18 to i32
  %20 = shl i32 %19, 16
  %21 = or i32 %15, %20
  %22 = load ptr, ptr %4, align 8, !tbaa !38
  %23 = getelementptr inbounds i8, ptr %22, i64 3
  %24 = load i8, ptr %23, align 1, !tbaa !85
  %25 = zext i8 %24 to i32
  %26 = shl i32 %25, 24
  %27 = or i32 %21, %26
  call void @avio_wl32(ptr noundef %5, i32 noundef %27)
  ret void
}

; Function Attrs: alwaysinline nounwind uwtable
define internal i64 @avio_tell(ptr noundef %0) #6 {
  %2 = alloca ptr, align 8
  store ptr %0, ptr %2, align 8, !tbaa !31
  %3 = load ptr, ptr %2, align 8, !tbaa !31
  %4 = call i64 @avio_seek(ptr noundef %3, i64 noundef 0, i32 noundef 1)
  ret i64 %4
}

; Function Attrs: nounwind uwtable
define internal i32 @mov_write_pcmc_tag(ptr noundef %0, ptr noundef %1, ptr noundef %2) #0 {
  %4 = alloca ptr, align 8
  %5 = alloca ptr, align 8
  %6 = alloca ptr, align 8
  %7 = alloca i64, align 8
  %8 = alloca i32, align 4
  %9 = alloca i32, align 4
  store ptr %0, ptr %4, align 8, !tbaa !4
  store ptr %1, ptr %5, align 8, !tbaa !31
  store ptr %2, ptr %6, align 8, !tbaa !47
  call void @llvm.lifetime.start.p0(i64 8, ptr %7) #14
  %10 = load ptr, ptr %5, align 8, !tbaa !31
  %11 = call i64 @avio_tell(ptr noundef %10)
  store i64 %11, ptr %7, align 8, !tbaa !134
  call void @llvm.lifetime.start.p0(i64 4, ptr %8) #14
  call void @llvm.lifetime.start.p0(i64 4, ptr %9) #14
  %12 = load ptr, ptr %5, align 8, !tbaa !31
  call void @avio_wb32(ptr noundef %12, i32 noundef 0)
  %13 = load ptr, ptr %5, align 8, !tbaa !31
  call void @ffio_wfourcc(ptr noundef %13, ptr noundef @.str.422)
  %14 = load ptr, ptr %5, align 8, !tbaa !31
  call void @avio_wb32(ptr noundef %14, i32 noundef 0)
  %15 = load ptr, ptr %6, align 8, !tbaa !47
  %16 = getelementptr inbounds nuw %struct.MOVTrack, ptr %15, i32 0, i32 18
  %17 = load ptr, ptr %16, align 8, !tbaa !52
  %18 = getelementptr inbounds nuw %struct.AVCodecParameters, ptr %17, i32 0, i32 1
  %19 = load i32, ptr %18, align 4, !tbaa !81
  %20 = icmp eq i32 %19, 65557
  br i1 %20, label %49, label %21

21:                                               ; preds = %3
  %22 = load ptr, ptr %6, align 8, !tbaa !47
  %23 = getelementptr inbounds nuw %struct.MOVTrack, ptr %22, i32 0, i32 18
  %24 = load ptr, ptr %23, align 8, !tbaa !52
  %25 = getelementptr inbounds nuw %struct.AVCodecParameters, ptr %24, i32 0, i32 1
  %26 = load i32, ptr %25, align 4, !tbaa !81
  %27 = icmp eq i32 %26, 65559
  br i1 %27, label %49, label %28

28:                                               ; preds = %21
  %29 = load ptr, ptr %6, align 8, !tbaa !47
  %30 = getelementptr inbounds nuw %struct.MOVTrack, ptr %29, i32 0, i32 18
  %31 = load ptr, ptr %30, align 8, !tbaa !52
  %32 = getelementptr inbounds nuw %struct.AVCodecParameters, ptr %31, i32 0, i32 1
  %33 = load i32, ptr %32, align 4, !tbaa !81
  %34 = icmp eq i32 %33, 65536
  br i1 %34, label %49, label %35

35:                                               ; preds = %28
  %36 = load ptr, ptr %6, align 8, !tbaa !47
  %37 = getelementptr inbounds nuw %struct.MOVTrack, ptr %36, i32 0, i32 18
  %38 = load ptr, ptr %37, align 8, !tbaa !52
  %39 = getelementptr inbounds nuw %struct.AVCodecParameters, ptr %38, i32 0, i32 1
  %40 = load i32, ptr %39, align 4, !tbaa !81
  %41 = icmp eq i32 %40, 65548
  br i1 %41, label %49, label %42

42:                                               ; preds = %35
  %43 = load ptr, ptr %6, align 8, !tbaa !47
  %44 = getelementptr inbounds nuw %struct.MOVTrack, ptr %43, i32 0, i32 18
  %45 = load ptr, ptr %44, align 8, !tbaa !52
  %46 = getelementptr inbounds nuw %struct.AVCodecParameters, ptr %45, i32 0, i32 1
  %47 = load i32, ptr %46, align 4, !tbaa !81
  %48 = icmp eq i32 %47, 65544
  br label %49

49:                                               ; preds = %42, %35, %28, %21, %3
  %50 = phi i1 [ true, %35 ], [ true, %28 ], [ true, %21 ], [ true, %3 ], [ %48, %42 ]
  %51 = zext i1 %50 to i32
  store i32 %51, ptr %8, align 4, !tbaa !32
  %52 = load ptr, ptr %5, align 8, !tbaa !31
  %53 = load i32, ptr %8, align 4, !tbaa !32
  call void @avio_w8(ptr noundef %52, i32 noundef %53)
  %54 = load ptr, ptr %6, align 8, !tbaa !47
  %55 = getelementptr inbounds nuw %struct.MOVTrack, ptr %54, i32 0, i32 18
  %56 = load ptr, ptr %55, align 8, !tbaa !52
  %57 = getelementptr inbounds nuw %struct.AVCodecParameters, ptr %56, i32 0, i32 10
  %58 = load i32, ptr %57, align 4, !tbaa !446
  store i32 %58, ptr %9, align 4, !tbaa !32
  %59 = load i32, ptr %9, align 4, !tbaa !32
  %60 = icmp ne i32 %59, 0
  br i1 %60, label %68, label %61

61:                                               ; preds = %49
  %62 = load ptr, ptr %6, align 8, !tbaa !47
  %63 = getelementptr inbounds nuw %struct.MOVTrack, ptr %62, i32 0, i32 18
  %64 = load ptr, ptr %63, align 8, !tbaa !52
  %65 = getelementptr inbounds nuw %struct.AVCodecParameters, ptr %64, i32 0, i32 1
  %66 = load i32, ptr %65, align 4, !tbaa !81
  %67 = call i32 @av_get_exact_bits_per_sample(i32 noundef %66)
  store i32 %67, ptr %9, align 4, !tbaa !32
  br label %68

68:                                               ; preds = %61, %49
  br label %69

69:                                               ; preds = %68
  %70 = load i32, ptr %9, align 4, !tbaa !32
  %71 = icmp ne i32 %70, 0
  br i1 %71, label %73, label %72

72:                                               ; preds = %69
  call void (ptr, i32, ptr, ...) @av_log(ptr noundef null, i32 noundef 0, ptr noundef @.str.6, ptr noundef @.str.423, ptr noundef @.str.8, i32 noundef 1337)
  call void @abort() #16
  unreachable

73:                                               ; preds = %69
  br label %74

74:                                               ; preds = %73
  br label %75

75:                                               ; preds = %74
  %76 = load ptr, ptr %5, align 8, !tbaa !31
  %77 = load i32, ptr %9, align 4, !tbaa !32
  call void @avio_w8(ptr noundef %76, i32 noundef %77)
  %78 = load ptr, ptr %5, align 8, !tbaa !31
  %79 = load i64, ptr %7, align 8, !tbaa !134
  %80 = call i64 @update_size(ptr noundef %78, i64 noundef %79)
  %81 = trunc i64 %80 to i32
  call void @llvm.lifetime.end.p0(i64 4, ptr %9) #14
  call void @llvm.lifetime.end.p0(i64 4, ptr %8) #14
  call void @llvm.lifetime.end.p0(i64 8, ptr %7) #14
  ret i32 %81
}