; Function Attrs: nounwind uwtable
define internal fastcc noundef i32 @mov_write_pcmc_tag(ptr noundef %0, ptr noundef readonly captures(none) %1) unnamed_addr #0 {
  %3 = tail call i64 @avio_seek(ptr noundef %0, i64 noundef 0, i32 noundef 1) #16
  tail call void @avio_wb32(ptr noundef %0, i32 noundef 0) #16
  tail call void @avio_wl32(ptr noundef %0, i32 noundef 1131242352) #16
  tail call void @avio_wb32(ptr noundef %0, i32 noundef 0) #16
  %4 = getelementptr inbounds nuw i8, ptr %1, i64 104
  %5 = load ptr, ptr %4, align 8, !tbaa !46
  %6 = getelementptr inbounds nuw i8, ptr %5, i64 4
  %7 = load i32, ptr %6, align 4, !tbaa !84
  switch i32 %7, label %8 [
    i32 65557, label %11
    i32 65559, label %11
    i32 65536, label %11
    i32 65548, label %11
  ]

8:                                                ; preds = %2
  %9 = icmp eq i32 %7, 65544
  %10 = zext i1 %9 to i32
  br label %11

11:                                               ; preds = %2, %2, %2, %2, %8
  %12 = phi i32 [ 1, %2 ], [ %10, %8 ], [ 1, %2 ], [ 1, %2 ], [ 1, %2 ]
  tail call void @avio_w8(ptr noundef %0, i32 noundef %12) #16
  %13 = load ptr, ptr %4, align 8, !tbaa !46
  %14 = getelementptr inbounds nuw i8, ptr %13, i64 60
  %15 = load i32, ptr %14, align 4, !tbaa !406
  %.not = icmp eq i32 %15, 0
  br i1 %.not, label %16, label %.thread

16:                                               ; preds = %11
  %17 = getelementptr inbounds nuw i8, ptr %13, i64 4
  %18 = load i32, ptr %17, align 4, !tbaa !84
  %19 = tail call i32 @av_get_exact_bits_per_sample(i32 noundef %18) #16
  %.not20 = icmp eq i32 %19, 0
  br i1 %.not20, label %20, label %.thread

20:                                               ; preds = %16
  tail call void (ptr, i32, ptr, ...) @av_log(ptr noundef null, i32 noundef 0, ptr noundef nonnull @.str.6, ptr noundef nonnull @.str.423, ptr noundef nonnull @.str.8, i32 noundef 1337) #16
  tail call void @abort() #17
  unreachable

.thread:                                          ; preds = %11, %16
  %.03 = phi i32 [ %19, %16 ], [ %15, %11 ]
  tail call void @avio_w8(ptr noundef %0, i32 noundef %.03) #16
  %21 = tail call i64 @avio_seek(ptr noundef %0, i64 noundef 0, i32 noundef 1) #16
  %22 = tail call i64 @avio_seek(ptr noundef %0, i64 noundef %3, i32 noundef 0) #16
  %23 = sub nsw i64 %21, %3
  %24 = trunc i64 %23 to i32
  tail call void @avio_wb32(ptr noundef %0, i32 noundef %24) #16
  %25 = tail call i64 @avio_seek(ptr noundef %0, i64 noundef %21, i32 noundef 0) #16
  ret i32 %24
}